#include <math.h>
#include <stdio.h>
#include <stdlib.h>
#include <string.h>

int main(){
	double n;
	int k,i,j=0,l;
	char s[501];
	char c[501];
	scanf("%lf",&n);
	scanf("%s",s);
	scanf("%s",c);
	k=strlen(s);
	l=strlen(c);
	for(i=0;s[i];i++){
		if(k!=l||(s[i]!='A'&&s[i]!='G'&&s[i]!='C'&&s[i]!='T')||(c[i]!='A'&&c[i]!='G'&&c[i]!='C'&&c[i]!='T')){
			j=-1;
			break;
		}
		if(0==s[i]-c[i]){
			j++;
		}
	}
	if(n<=1.00*j/k&&j!=0){
		printf("yes");
	}else if(j==-1){
		printf("error");
	}else{
		printf("no");
	}
	return 0;
}